; Function Attrs: mustprogress uwtable
define noundef i32 @_ZN6icu_7517UCharsTrieBuilder5writeEi(ptr nocapture noundef nonnull align 8 dereferenceable(112) %this, i32 noundef %unit) unnamed_addr #0 align 2 {
entry:
  %ucharsLength = getelementptr inbounds i8, ptr %this, i64 108
  %0 = load i32, ptr %ucharsLength, align 4
  %add = add nsw i32 %0, 1
  %uchars.i = getelementptr inbounds i8, ptr %this, i64 96
  %1 = load ptr, ptr %uchars.i, align 8
  %cmp.i = icmp eq ptr %1, null
  br i1 %cmp.i, label %if.end, label %if.end.i

if.end.i:                                         ; preds = %entry
  %ucharsCapacity.i = getelementptr inbounds i8, ptr %this, i64 104
  %2 = load i32, ptr %ucharsCapacity.i, align 8
  %cmp2.i.not = icmp sgt i32 %2, %0
  br i1 %cmp2.i.not, label %if.then, label %do.body.i

do.body.i:                                        ; preds = %if.end.i, %do.body.i
  %newCapacity.0.i = phi i32 [ %mul.i, %do.body.i ], [ %2, %if.end.i ]
  %mul.i = shl nsw i32 %newCapacity.0.i, 1
  %cmp5.not.i = icmp sgt i32 %mul.i, %add
  br i1 %cmp5.not.i, label %do.end.i, label %do.body.i, !llvm.loop !22

do.end.i:                                         ; preds = %do.body.i
  %mul6.i = shl nsw i32 %newCapacity.0.i, 2
  %conv.i = sext i32 %mul6.i to i64
  %call.i = tail call noalias ptr @uprv_malloc_75(i64 noundef %conv.i) #13
  %cmp7.i = icmp eq ptr %call.i, null
  br i1 %cmp7.i, label %if.end.critedge, label %if.end12.i

if.end12.i:                                       ; preds = %do.end.i
  %3 = load i32, ptr %ucharsLength, align 4
  %sub.i = sub nsw i32 %mul.i, %3
  %idx.ext.i = sext i32 %sub.i to i64
  %add.ptr.i = getelementptr inbounds i16, ptr %call.i, i64 %idx.ext.i
  %4 = load ptr, ptr %uchars.i, align 8
  %5 = load i32, ptr %ucharsCapacity.i, align 8
  %sub16.i = sub nsw i32 %5, %3
  %idx.ext17.i = sext i32 %sub16.i to i64
  %add.ptr18.i = getelementptr inbounds i16, ptr %4, i64 %idx.ext17.i
  %call20.i = tail call ptr @u_memcpy_75(ptr noundef nonnull %add.ptr.i, ptr noundef %add.ptr18.i, i32 noundef %3)
  %6 = load ptr, ptr %uchars.i, align 8
  tail call void @uprv_free_75(ptr noundef %6)
  store ptr %call.i, ptr %uchars.i, align 8
  store i32 %mul.i, ptr %ucharsCapacity.i, align 8
  br label %if.then

if.then:                                          ; preds = %if.end12.i, %if.end.i
  %7 = phi i32 [ %mul.i, %if.end12.i ], [ %2, %if.end.i ]
  %8 = phi ptr [ %call.i, %if.end12.i ], [ %1, %if.end.i ]
  store i32 %add, ptr %ucharsLength, align 4
  %conv = trunc i32 %unit to i16
  %sub = sub nsw i32 %7, %add
  %idxprom = sext i32 %sub to i64
  %arrayidx = getelementptr inbounds i16, ptr %8, i64 %idxprom
  store i16 %conv, ptr %arrayidx, align 2
  br label %if.end

if.end.critedge:                                  ; preds = %do.end.i
  %9 = load ptr, ptr %uchars.i, align 8
  tail call void @uprv_free_75(ptr noundef %9)
  store ptr null, ptr %uchars.i, align 8
  store i32 0, ptr %ucharsCapacity.i, align 8
  br label %if.end

if.end:                                           ; preds = %if.end.critedge, %entry, %if.then
  %10 = load i32, ptr %ucharsLength, align 4
  ret i32 %10
}